(lp0
((lp1
I100
aI100
a(lp2
F0.0
aF0.0
aF0.001
I5
I2000
tp3
a(g1
g2
F0.001
I5
I3000
tp4
a((lp5
I200
aI200
ag2
F0.001
I5
I2000
tp6
a(g5
g2
F0.001
I5
I3000
tp7
a((lp8
I300
aI300
ag2
F0.001
I5
I2000
tp9
a(g8
g2
F0.001
I5
I3000
tp10
a((lp11
I100
aI100
aI100
ag2
F0.001
I5
I2000
tp12
a(g11
g2
F0.001
I5
I3000
tp13
a((lp14
I200
aI200
aI200
ag2
F0.001
I5
I2000
tp15
a(g14
g2
F0.001
I5
I3000
tp16
a((lp17
I300
aI300
aI300
ag2
F0.001
I5
I2000
tp18
a(g17
g2
F0.001
I5
I3000
tp19
a.