(lp0
((lp1
I20
a(lp2
F0.0
aF0.0
aF0.01
I5
tp3
a(g1
g2
F0.01
I10
tp4
a(g1
g2
F0.001
I5
tp5
a(g1
g2
F0.001
I10
tp6
a(g1
(lp7
F0.001
aF0.0
aF0.01
I5
tp8
a(g1
g7
F0.01
I10
tp9
a(g1
g7
F0.001
I5
tp10
a(g1
g7
F0.001
I10
tp11
a(g1
(lp12
F0.0
aF0.001
aF0.01
I5
tp13
a(g1
g12
F0.01
I10
tp14
a(g1
g12
F0.001
I5
tp15
a(g1
g12
F0.001
I10
tp16
a((lp17
I50
ag2
F0.01
I5
tp18
a(g17
g2
F0.01
I10
tp19
a(g17
g2
F0.001
I5
tp20
a(g17
g2
F0.001
I10
tp21
a(g17
g7
F0.01
I5
tp22
a(g17
g7
F0.01
I10
tp23
a(g17
g7
F0.001
I5
tp24
a(g17
g7
F0.001
I10
tp25
a(g17
g12
F0.01
I5
tp26
a(g17
g12
F0.01
I10
tp27
a(g17
g12
F0.001
I5
tp28
a(g17
g12
F0.001
I10
tp29
a((lp30
I100
ag2
F0.01
I5
tp31
a(g30
g2
F0.01
I10
tp32
a(g30
g2
F0.001
I5
tp33
a(g30
g2
F0.001
I10
tp34
a(g30
g7
F0.01
I5
tp35
a(g30
g7
F0.01
I10
tp36
a(g30
g7
F0.001
I5
tp37
a(g30
g7
F0.001
I10
tp38
a(g30
g12
F0.01
I5
tp39
a(g30
g12
F0.01
I10
tp40
a(g30
g12
F0.001
I5
tp41
a(g30
g12
F0.001
I10
tp42
a((lp43
I200
ag2
F0.01
I5
tp44
a(g43
g2
F0.01
I10
tp45
a(g43
g2
F0.001
I5
tp46
a(g43
g2
F0.001
I10
tp47
a(g43
g7
F0.01
I5
tp48
a(g43
g7
F0.01
I10
tp49
a(g43
g7
F0.001
I5
tp50
a(g43
g7
F0.001
I10
tp51
a(g43
g12
F0.01
I5
tp52
a(g43
g12
F0.01
I10
tp53
a(g43
g12
F0.001
I5
tp54
a(g43
g12
F0.001
I10
tp55
a((lp56
I20
aI20
ag2
F0.01
I5
tp57
a(g56
g2
F0.01
I10
tp58
a(g56
g2
F0.001
I5
tp59
a(g56
g2
F0.001
I10
tp60
a(g56
g7
F0.01
I5
tp61
a(g56
g7
F0.01
I10
tp62
a(g56
g7
F0.001
I5
tp63
a(g56
g7
F0.001
I10
tp64
a(g56
g12
F0.01
I5
tp65
a(g56
g12
F0.01
I10
tp66
a(g56
g12
F0.001
I5
tp67
a(g56
g12
F0.001
I10
tp68
a((lp69
I50
aI50
ag2
F0.01
I5
tp70
a(g69
g2
F0.01
I10
tp71
a(g69
g2
F0.001
I5
tp72
a(g69
g2
F0.001
I10
tp73
a(g69
g7
F0.01
I5
tp74
a(g69
g7
F0.01
I10
tp75
a(g69
g7
F0.001
I5
tp76
a(g69
g7
F0.001
I10
tp77
a(g69
g12
F0.01
I5
tp78
a(g69
g12
F0.01
I10
tp79
a(g69
g12
F0.001
I5
tp80
a(g69
g12
F0.001
I10
tp81
a((lp82
I100
aI100
ag2
F0.01
I5
tp83
a(g82
g2
F0.01
I10
tp84
a(g82
g2
F0.001
I5
tp85
a(g82
g2
F0.001
I10
tp86
a(g82
g7
F0.01
I5
tp87
a(g82
g7
F0.01
I10
tp88
a(g82
g7
F0.001
I5
tp89
a(g82
g7
F0.001
I10
tp90
a(g82
g12
F0.01
I5
tp91
a(g82
g12
F0.01
I10
tp92
a(g82
g12
F0.001
I5
tp93
a(g82
g12
F0.001
I10
tp94
a((lp95
I200
aI200
ag2
F0.01
I5
tp96
a(g95
g2
F0.01
I10
tp97
a(g95
g2
F0.001
I5
tp98
a(g95
g2
F0.001
I10
tp99
a(g95
g7
F0.01
I5
tp100
a(g95
g7
F0.01
I10
tp101
a(g95
g7
F0.001
I5
tp102
a(g95
g7
F0.001
I10
tp103
a(g95
g12
F0.01
I5
tp104
a(g95
g12
F0.01
I10
tp105
a(g95
g12
F0.001
I5
tp106
a(g95
g12
F0.001
I10
tp107
a((lp108
I50
aI50
aI50
ag2
F0.01
I5
tp109
a(g108
g2
F0.01
I10
tp110
a(g108
g2
F0.001
I5
tp111
a(g108
g2
F0.001
I10
tp112
a(g108
g7
F0.01
I5
tp113
a(g108
g7
F0.01
I10
tp114
a(g108
g7
F0.001
I5
tp115
a(g108
g7
F0.001
I10
tp116
a(g108
g12
F0.01
I5
tp117
a(g108
g12
F0.01
I10
tp118
a(g108
g12
F0.001
I5
tp119
a(g108
g12
F0.001
I10
tp120
a((lp121
I100
aI100
aI100
ag2
F0.01
I5
tp122
a(g121
g2
F0.01
I10
tp123
a(g121
g2
F0.001
I5
tp124
a(g121
g2
F0.001
I10
tp125
a(g121
g7
F0.01
I5
tp126
a(g121
g7
F0.01
I10
tp127
a(g121
g7
F0.001
I5
tp128
a(g121
g7
F0.001
I10
tp129
a(g121
g12
F0.01
I5
tp130
a(g121
g12
F0.01
I10
tp131
a(g121
g12
F0.001
I5
tp132
a(g121
g12
F0.001
I10
tp133
a.