(lp0
((lp1
I200
aI200
aI200
a(lp2
F0.0
aF0.0
aF0.001
I5
I5000
tp3
a((lp4
I300
aI300
aI300
ag2
F0.001
I5
I5000
tp5
a((lp6
I400
aI400
aI400
ag2
F0.001
I5
I5000
tp7
a((lp8
I200
aI200
aI200
aI200
ag2
F0.001
I5
I5000
tp9
a.